target datalayout = "e-m:e-p270:32:32-p271:32:32-p272:64:64-i64:64-i128:128-f80:128-n8:16:32:64-S128"
target triple = "x86_64-pc-linux-gnu"

%struct.strbuf = type { i64, i64, ptr }
%struct.push_default_info = type { ptr, i32, %struct.strbuf, i32 }
%struct.config_context = type { ptr }
%struct.key_value_info = type { ptr, i32, i32, i32, ptr }

@strbuf_slopbuf = external global [0 x i8], align 1
@.str.47 = private unnamed_addr constant [11 x i8] c"./strbuf.h\00", align 1
@.str.48 = private unnamed_addr constant [30 x i8] c"strbuf_setlen() beyond buffer\00", align 1
@.str.89 = private unnamed_addr constant [19 x i8] c"remote.pushdefault\00", align 1

; Function Attrs: inlinehint nounwind uwtable
define internal void @strbuf_addstr(ptr noundef %0, ptr noundef %1) #4 {
  %3 = alloca ptr, align 8
  %4 = alloca ptr, align 8
  store ptr %0, ptr %3, align 8, !tbaa !131
  store ptr %1, ptr %4, align 8, !tbaa !11
  %5 = load ptr, ptr %3, align 8, !tbaa !131
  %6 = load ptr, ptr %4, align 8, !tbaa !11
  %7 = load ptr, ptr %4, align 8, !tbaa !11
  %8 = call i64 @strlen(ptr noundef %7) #14
  call void @strbuf_add(ptr noundef %5, ptr noundef %6, i64 noundef %8)
  ret void
}

; Function Attrs: inlinehint nounwind uwtable
define internal void @strbuf_setlen(ptr noundef %0, i64 noundef %1) #4 {
  %3 = alloca ptr, align 8
  %4 = alloca i64, align 8
  store ptr %0, ptr %3, align 8, !tbaa !131
  store i64 %1, ptr %4, align 8, !tbaa !133
  %5 = load i64, ptr %4, align 8, !tbaa !133
  %6 = load ptr, ptr %3, align 8, !tbaa !131
  %7 = getelementptr inbounds nuw %struct.strbuf, ptr %6, i32 0, i32 0
  %8 = load i64, ptr %7, align 8, !tbaa !134
  %9 = icmp ne i64 %8, 0
  br i1 %9, label %10, label %15

10:                                               ; preds = %2
  %11 = load ptr, ptr %3, align 8, !tbaa !131
  %12 = getelementptr inbounds nuw %struct.strbuf, ptr %11, i32 0, i32 0
  %13 = load i64, ptr %12, align 8, !tbaa !134
  %14 = sub i64 %13, 1
  br label %16

15:                                               ; preds = %2
  br label %16

16:                                               ; preds = %15, %10
  %17 = phi i64 [ %14, %10 ], [ 0, %15 ]
  %18 = icmp ugt i64 %5, %17
  br i1 %18, label %19, label %20

19:                                               ; preds = %16
  call void (ptr, i32, ptr, ...) @BUG_fl(ptr noundef @.str.47, i32 noundef 167, ptr noundef @.str.48) #12
  unreachable

20:                                               ; preds = %16
  %21 = load i64, ptr %4, align 8, !tbaa !133
  %22 = load ptr, ptr %3, align 8, !tbaa !131
  %23 = getelementptr inbounds nuw %struct.strbuf, ptr %22, i32 0, i32 1
  store i64 %21, ptr %23, align 8, !tbaa !135
  %24 = load ptr, ptr %3, align 8, !tbaa !131
  %25 = getelementptr inbounds nuw %struct.strbuf, ptr %24, i32 0, i32 2
  %26 = load ptr, ptr %25, align 8, !tbaa !35
  %27 = icmp ne ptr %26, @strbuf_slopbuf
  br i1 %27, label %28, label %34

28:                                               ; preds = %20
  %29 = load ptr, ptr %3, align 8, !tbaa !131
  %30 = getelementptr inbounds nuw %struct.strbuf, ptr %29, i32 0, i32 2
  %31 = load ptr, ptr %30, align 8, !tbaa !35
  %32 = load i64, ptr %4, align 8, !tbaa !133
  %33 = getelementptr inbounds nuw i8, ptr %31, i64 %32
  store i8 0, ptr %33, align 1, !tbaa !125
  br label %35

34:                                               ; preds = %20
  br label %35

35:                                               ; preds = %34, %28
  ret void
}

; Function Attrs: nounwind uwtable
define internal i32 @config_read_push_default(ptr noundef %0, ptr noundef %1, ptr noundef %2, ptr noundef %3) #0 {
  %5 = alloca i32, align 4
  %6 = alloca ptr, align 8
  %7 = alloca ptr, align 8
  %8 = alloca ptr, align 8
  %9 = alloca ptr, align 8
  %10 = alloca ptr, align 8
  %11 = alloca ptr, align 8
  %12 = alloca i32, align 4
  store ptr %0, ptr %6, align 8, !tbaa !11
  store ptr %1, ptr %7, align 8, !tbaa !11
  store ptr %2, ptr %8, align 8, !tbaa !153
  store ptr %3, ptr %9, align 8, !tbaa !15
  call void @llvm.lifetime.start.p0(i64 8, ptr %10) #11
  %13 = load ptr, ptr %8, align 8, !tbaa !153
  %14 = getelementptr inbounds nuw %struct.config_context, ptr %13, i32 0, i32 0
  %15 = load ptr, ptr %14, align 8, !tbaa !160
  store ptr %15, ptr %10, align 8, !tbaa !163
  call void @llvm.lifetime.start.p0(i64 8, ptr %11) #11
  %16 = load ptr, ptr %9, align 8, !tbaa !15
  store ptr %16, ptr %11, align 8, !tbaa !164
  %17 = load ptr, ptr %6, align 8, !tbaa !11
  %18 = call i32 @strcmp(ptr noundef %17, ptr noundef @.str.89) #14
  %19 = icmp ne i32 %18, 0
  br i1 %19, label %30, label %20

20:                                               ; preds = %4
  %21 = load ptr, ptr %7, align 8, !tbaa !11
  %22 = icmp ne ptr %21, null
  br i1 %22, label %23, label %30

23:                                               ; preds = %20
  %24 = load ptr, ptr %7, align 8, !tbaa !11
  %25 = load ptr, ptr %11, align 8, !tbaa !164
  %26 = getelementptr inbounds nuw %struct.push_default_info, ptr %25, i32 0, i32 0
  %27 = load ptr, ptr %26, align 8, !tbaa !148
  %28 = call i32 @strcmp(ptr noundef %24, ptr noundef %27) #14
  %29 = icmp ne i32 %28, 0
  br i1 %29, label %30, label %31

30:                                               ; preds = %23, %20, %4
  store i32 0, ptr %5, align 4
  store i32 1, ptr %12, align 4
  br label %50

31:                                               ; preds = %23
  %32 = load ptr, ptr %10, align 8, !tbaa !163
  %33 = getelementptr inbounds nuw %struct.key_value_info, ptr %32, i32 0, i32 3
  %34 = load i32, ptr %33, align 8, !tbaa !166
  %35 = load ptr, ptr %11, align 8, !tbaa !164
  %36 = getelementptr inbounds nuw %struct.push_default_info, ptr %35, i32 0, i32 1
  store i32 %34, ptr %36, align 8, !tbaa !150
  %37 = load ptr, ptr %11, align 8, !tbaa !164
  %38 = getelementptr inbounds nuw %struct.push_default_info, ptr %37, i32 0, i32 2
  call void @strbuf_setlen(ptr noundef %38, i64 noundef 0)
  %39 = load ptr, ptr %11, align 8, !tbaa !164
  %40 = getelementptr inbounds nuw %struct.push_default_info, ptr %39, i32 0, i32 2
  %41 = load ptr, ptr %10, align 8, !tbaa !163
  %42 = getelementptr inbounds nuw %struct.key_value_info, ptr %41, i32 0, i32 2
  %43 = load i32, ptr %42, align 4, !tbaa !168
  %44 = call ptr @config_origin_type_name(i32 noundef %43)
  call void @strbuf_addstr(ptr noundef %40, ptr noundef %44)
  %45 = load ptr, ptr %10, align 8, !tbaa !163
  %46 = getelementptr inbounds nuw %struct.key_value_info, ptr %45, i32 0, i32 1
  %47 = load i32, ptr %46, align 8, !tbaa !169
  %48 = load ptr, ptr %11, align 8, !tbaa !164
  %49 = getelementptr inbounds nuw %struct.push_default_info, ptr %48, i32 0, i32 3
  store i32 %47, ptr %49, align 8, !tbaa !151
  store i32 0, ptr %5, align 4
  store i32 1, ptr %12, align 4
  br label %50

50:                                               ; preds = %31, %30
  call void @llvm.lifetime.end.p0(i64 8, ptr %11) #11
  call void @llvm.lifetime.end.p0(i64 8, ptr %10) #11
  %51 = load i32, ptr %5, align 4
  ret i32 %51
}