; Function Attrs: nounwind uwtable
define internal noundef i32 @config_read_push_default(ptr noundef readonly captures(none) %0, ptr noundef readonly %1, ptr noundef readonly captures(none) %2, ptr noundef %3) #0 {
  %5 = load ptr, ptr %2, align 8, !tbaa !135
  %6 = tail call i32 @strcmp(ptr noundef nonnull dereferenceable(1) %0, ptr noundef nonnull dereferenceable(19) @.str.89) #21
  %7 = icmp eq i32 %6, 0
  %8 = icmp ne ptr %1, null
  %or.cond = and i1 %8, %7
  br i1 %or.cond, label %9, label %28

9:                                                ; preds = %4
  %10 = load ptr, ptr %3, align 8, !tbaa !128
  %11 = tail call i32 @strcmp(ptr noundef nonnull dereferenceable(1) %1, ptr noundef nonnull dereferenceable(1) %10) #21
  %.not = icmp eq i32 %11, 0
  br i1 %.not, label %12, label %28

12:                                               ; preds = %9
  %13 = getelementptr inbounds nuw i8, ptr %5, i64 16
  %14 = load i32, ptr %13, align 8, !tbaa !138
  %15 = getelementptr inbounds nuw i8, ptr %3, i64 8
  store i32 %14, ptr %15, align 8, !tbaa !131
  %16 = getelementptr inbounds nuw i8, ptr %3, i64 16
  %17 = getelementptr inbounds nuw i8, ptr %3, i64 24
  store i64 0, ptr %17, align 8, !tbaa !28
  %18 = getelementptr inbounds nuw i8, ptr %3, i64 32
  %19 = load ptr, ptr %18, align 8, !tbaa !24
  %.not9.i = icmp eq ptr %19, @strbuf_slopbuf
  br i1 %.not9.i, label %strbuf_setlen.exit, label %20

20:                                               ; preds = %12
  store i8 0, ptr %19, align 1, !tbaa !29
  br label %strbuf_setlen.exit

strbuf_setlen.exit:                               ; preds = %12, %20
  %21 = getelementptr inbounds nuw i8, ptr %5, i64 12
  %22 = load i32, ptr %21, align 4, !tbaa !140
  %23 = tail call ptr @config_origin_type_name(i32 noundef %22) #19
  %24 = tail call i64 @strlen(ptr noundef nonnull dereferenceable(1) %23) #21
  tail call void @strbuf_add(ptr noundef nonnull %16, ptr noundef nonnull %23, i64 noundef %24) #19
  %25 = getelementptr inbounds nuw i8, ptr %5, i64 8
  %26 = load i32, ptr %25, align 8, !tbaa !141
  %27 = getelementptr inbounds nuw i8, ptr %3, i64 40
  store i32 %26, ptr %27, align 8, !tbaa !130
  br label %28

28:                                               ; preds = %4, %9, %strbuf_setlen.exit
  ret i32 0
}